; Function Attrs: mustprogress uwtable
define hidden void @_ZN6Assimp11AMFImporter22ParseHelper_Node_EnterEP18AMFNodeElementBase(ptr noundef nonnull align 8 captures(none) dereferenceable(224) %0, ptr noundef %1) local_unnamed_addr #7 align 2 personality ptr @__gxx_personality_v0 {
  %3 = getelementptr inbounds nuw i8, ptr %0, i64 72
  %4 = load ptr, ptr %3, align 8
  %5 = getelementptr inbounds nuw i8, ptr %4, i64 56
  %6 = tail call noalias noundef nonnull dereferenceable(24) ptr @_Znwm(i64 noundef 24) #34
  %7 = getelementptr inbounds nuw i8, ptr %6, i64 16
  store ptr %1, ptr %7, align 8
  tail call void @_ZNSt8__detail15_List_node_base7_M_hookEPS0_(ptr noundef nonnull align 8 dereferenceable(16) %6, ptr noundef nonnull align 8 dereferenceable(24) %5) #31
  %8 = getelementptr inbounds nuw i8, ptr %4, i64 72
  %9 = load i64, ptr %8, align 8
  %10 = add i64 %9, 1
  store i64 %10, ptr %8, align 8
  store ptr %1, ptr %3, align 8
  ret void
}